target datalayout = "e-m:e-p270:32:32-p271:32:32-p272:64:64-i64:64-i128:128-f80:128-n8:16:32:64-S128"
target triple = "x86_64-unknown-linux-gnu"

; Function Attrs: nounwind uwtable
define i32 @redisAsyncCommandArgv(ptr noundef %ac, ptr noundef %fn, ptr noundef %privdata, i32 noundef %argc, ptr noundef %argv, ptr noundef %argvlen) #0 {
entry:
  %retval = alloca i32, align 4
  %ac.addr = alloca ptr, align 8
  %fn.addr = alloca ptr, align 8
  %privdata.addr = alloca ptr, align 8
  %argc.addr = alloca i32, align 4
  %argv.addr = alloca ptr, align 8
  %argvlen.addr = alloca ptr, align 8
  %cmd = alloca ptr, align 8
  %len = alloca i64, align 8
  %status = alloca i32, align 4
  store ptr %ac, ptr %ac.addr, align 8
  store ptr %fn, ptr %fn.addr, align 8
  store ptr %privdata, ptr %privdata.addr, align 8
  store i32 %argc, ptr %argc.addr, align 4
  store ptr %argv, ptr %argv.addr, align 8
  store ptr %argvlen, ptr %argvlen.addr, align 8
  %0 = load i32, ptr %argc.addr, align 4
  %1 = load ptr, ptr %argv.addr, align 8
  %2 = load ptr, ptr %argvlen.addr, align 8
  %call = call i64 @redisFormatSdsCommandArgv(ptr noundef %cmd, i32 noundef %0, ptr noundef %1, ptr noundef %2)
  store i64 %call, ptr %len, align 8
  %3 = load i64, ptr %len, align 8
  %cmp = icmp slt i64 %3, 0
  br i1 %cmp, label %if.then, label %if.end

if.then:                                          ; preds = %entry
  store i32 -1, ptr %retval, align 4
  br label %return

if.end:                                           ; preds = %entry
  %4 = load ptr, ptr %ac.addr, align 8
  %5 = load ptr, ptr %fn.addr, align 8
  %6 = load ptr, ptr %privdata.addr, align 8
  %7 = load ptr, ptr %cmd, align 8
  %8 = load i64, ptr %len, align 8
  %call1 = call i32 @__redisAsyncCommand(ptr noundef %4, ptr noundef %5, ptr noundef %6, ptr noundef %7, i64 noundef %8)
  store i32 %call1, ptr %status, align 4
  %9 = load ptr, ptr %cmd, align 8
  call void @hi_sdsfree(ptr noundef %9)
  %10 = load i32, ptr %status, align 4
  store i32 %10, ptr %retval, align 4
  br label %return

return:                                           ; preds = %if.end, %if.then
  %11 = load i32, ptr %retval, align 4
  ret i32 %11
}