; Function Attrs: nounwind uwtable
define noundef i32 @redisAsyncCommandArgv(ptr noundef %ac, ptr noundef %fn, ptr noundef %privdata, i32 noundef %argc, ptr noundef %argv, ptr noundef %argvlen) local_unnamed_addr #0 {
entry:
  %cmd = alloca ptr, align 8
  %call = call i64 @redisFormatSdsCommandArgv(ptr noundef nonnull %cmd, i32 noundef %argc, ptr noundef %argv, ptr noundef %argvlen) #14
  %cmp = icmp slt i64 %call, 0
  br i1 %cmp, label %return, label %if.end

if.end:                                           ; preds = %entry
  %0 = load ptr, ptr %cmd, align 8
  %call1 = call fastcc i32 @__redisAsyncCommand(ptr noundef %ac, ptr noundef %fn, ptr noundef %privdata, ptr noundef %0, i64 noundef %call), !range !7
  %1 = load ptr, ptr %cmd, align 8
  call void @hi_sdsfree(ptr noundef %1) #14
  br label %return

return:                                           ; preds = %entry, %if.end
  %retval.0 = phi i32 [ %call1, %if.end ], [ -1, %entry ]
  ret i32 %retval.0
}